; Function Attrs: mustprogress uwtable
define hidden void @_ZN4cvc58internal6theory7strings11SkolemCache14mkSkolemCachedENS0_12NodeTemplateILb1EEES5_NS3_14StringSkolemIdEPKc(ptr dead_on_unwind noalias writable sret(%"class.cvc5::internal::NodeTemplate") align 8 %0, ptr noundef nonnull align 8 dereferenceable(136) %1, ptr noundef readonly captures(none) %2, ptr noundef readonly captures(none) %3, i32 noundef %4, ptr noundef %5) local_unnamed_addr #3 align 2 personality ptr @__gxx_personality_v0 {
  %7 = alloca %"class.cvc5::internal::TypeNode", align 8
  %8 = alloca %"class.cvc5::internal::NodeTemplate", align 8
  %9 = alloca %"class.cvc5::internal::NodeTemplate", align 8
  %10 = getelementptr inbounds nuw i8, ptr %1, i64 16
  %11 = load ptr, ptr %10, align 8, !tbaa !33
  store ptr %11, ptr %7, align 8, !tbaa !33
  %12 = load i64, ptr %11, align 8
  %13 = lshr i64 %12, 40
  %14 = trunc nuw nsw i64 %13 to i32
  %15 = and i32 %14, 1048575
  %16 = icmp samesign ult i32 %15, 1048574
  br i1 %16, label %17, label %22, !prof !44

17:                                               ; preds = %6
  %18 = add i64 %12, 1099511627776
  %19 = and i64 %18, 1152920405095219200
  %20 = and i64 %12, -1152920405095219201
  %21 = or disjoint i64 %19, %20
  store i64 %21, ptr %11, align 8
  br label %_ZN4cvc58internal8TypeNodeC2ERKS1_.exit

22:                                               ; preds = %6
  %23 = icmp eq i32 %15, 1048574
  br i1 %23, label %24, label %_ZN4cvc58internal8TypeNodeC2ERKS1_.exit, !prof !43

24:                                               ; preds = %22
  %25 = or i64 %12, 1152920405095219200
  store i64 %25, ptr %11, align 8
  tail call void @_ZN4cvc58internal4expr9NodeValue20markRefCountMaxedOutEv(ptr noundef nonnull align 8 dereferenceable(24) %11)
  br label %_ZN4cvc58internal8TypeNodeC2ERKS1_.exit

_ZN4cvc58internal8TypeNodeC2ERKS1_.exit:          ; preds = %17, %22, %24
  %26 = load ptr, ptr %2, align 8, !tbaa !34
  store ptr %26, ptr %8, align 8, !tbaa !34
  %27 = load i64, ptr %26, align 8
  %28 = lshr i64 %27, 40
  %29 = trunc nuw nsw i64 %28 to i32
  %30 = and i32 %29, 1048575
  %31 = icmp samesign ult i32 %30, 1048574
  br i1 %31, label %32, label %37, !prof !44

32:                                               ; preds = %_ZN4cvc58internal8TypeNodeC2ERKS1_.exit
  %33 = add i64 %27, 1099511627776
  %34 = and i64 %33, 1152920405095219200
  %35 = and i64 %27, -1152920405095219201
  %36 = or disjoint i64 %34, %35
  store i64 %36, ptr %26, align 8
  br label %_ZN4cvc58internal12NodeTemplateILb1EEC2ERKS2_.exit

37:                                               ; preds = %_ZN4cvc58internal8TypeNodeC2ERKS1_.exit
  %38 = icmp eq i32 %30, 1048574
  br i1 %38, label %39, label %_ZN4cvc58internal12NodeTemplateILb1EEC2ERKS2_.exit, !prof !43

39:                                               ; preds = %37
  %40 = or i64 %27, 1152920405095219200
  store i64 %40, ptr %26, align 8
  invoke void @_ZN4cvc58internal4expr9NodeValue20markRefCountMaxedOutEv(ptr noundef nonnull align 8 dereferenceable(24) %26)
          to label %_ZN4cvc58internal12NodeTemplateILb1EEC2ERKS2_.exit unwind label %96

_ZN4cvc58internal12NodeTemplateILb1EEC2ERKS2_.exit: ; preds = %37, %32, %39
  %41 = load ptr, ptr %3, align 8, !tbaa !34
  store ptr %41, ptr %9, align 8, !tbaa !34
  %42 = load i64, ptr %41, align 8
  %43 = lshr i64 %42, 40
  %44 = trunc nuw nsw i64 %43 to i32
  %45 = and i32 %44, 1048575
  %46 = icmp samesign ult i32 %45, 1048574
  br i1 %46, label %47, label %52, !prof !44

47:                                               ; preds = %_ZN4cvc58internal12NodeTemplateILb1EEC2ERKS2_.exit
  %48 = add i64 %42, 1099511627776
  %49 = and i64 %48, 1152920405095219200
  %50 = and i64 %42, -1152920405095219201
  %51 = or disjoint i64 %49, %50
  store i64 %51, ptr %41, align 8
  br label %_ZN4cvc58internal12NodeTemplateILb1EEC2ERKS2_.exit9

52:                                               ; preds = %_ZN4cvc58internal12NodeTemplateILb1EEC2ERKS2_.exit
  %53 = icmp eq i32 %45, 1048574
  br i1 %53, label %54, label %_ZN4cvc58internal12NodeTemplateILb1EEC2ERKS2_.exit9, !prof !43

54:                                               ; preds = %52
  %55 = or i64 %42, 1152920405095219200
  store i64 %55, ptr %41, align 8
  invoke void @_ZN4cvc58internal4expr9NodeValue20markRefCountMaxedOutEv(ptr noundef nonnull align 8 dereferenceable(24) %41)
          to label %_ZN4cvc58internal12NodeTemplateILb1EEC2ERKS2_.exit9 unwind label %98

_ZN4cvc58internal12NodeTemplateILb1EEC2ERKS2_.exit9: ; preds = %52, %47, %54
  invoke void @_ZN4cvc58internal6theory7strings11SkolemCache19mkTypedSkolemCachedENS0_8TypeNodeENS0_12NodeTemplateILb1EEES6_NS3_14StringSkolemIdEPKc(ptr dead_on_unwind writable sret(%"class.cvc5::internal::NodeTemplate") align 8 %0, ptr noundef nonnull align 8 dereferenceable(136) %1, ptr noundef nonnull %7, ptr noundef nonnull %8, ptr noundef nonnull %9, i32 noundef %4, ptr noundef %5)
          to label %56 unwind label %100

56:                                               ; preds = %_ZN4cvc58internal12NodeTemplateILb1EEC2ERKS2_.exit9
  %57 = load ptr, ptr %9, align 8, !tbaa !34
  %58 = load i64, ptr %57, align 8
  %59 = and i64 %58, 1152920405095219200
  %.not.i.i = icmp eq i64 %59, 1152920405095219200
  br i1 %.not.i.i, label %_ZN4cvc58internal12NodeTemplateILb1EED2Ev.exit, label %60, !prof !43

60:                                               ; preds = %56
  %61 = add i64 %58, 1152920405095219200
  %62 = and i64 %61, 1152920405095219200
  %63 = and i64 %58, -1152920405095219201
  %64 = or disjoint i64 %62, %63
  store i64 %64, ptr %57, align 8
  %65 = icmp eq i64 %62, 0
  br i1 %65, label %66, label %_ZN4cvc58internal12NodeTemplateILb1EED2Ev.exit, !prof !43

66:                                               ; preds = %60
  invoke void @_ZN4cvc58internal4expr9NodeValue15markForDeletionEv(ptr noundef nonnull align 8 dereferenceable(24) %57)
          to label %_ZN4cvc58internal12NodeTemplateILb1EED2Ev.exit unwind label %67

67:                                               ; preds = %66
  %68 = landingpad { ptr, i32 }
          catch ptr null
  %69 = extractvalue { ptr, i32 } %68, 0
  call void @__clang_call_terminate(ptr %69) #25
  unreachable

_ZN4cvc58internal12NodeTemplateILb1EED2Ev.exit:   ; preds = %56, %60, %66
  %70 = load ptr, ptr %8, align 8, !tbaa !34
  %71 = load i64, ptr %70, align 8
  %72 = and i64 %71, 1152920405095219200
  %.not.i.i10 = icmp eq i64 %72, 1152920405095219200
  br i1 %.not.i.i10, label %_ZN4cvc58internal12NodeTemplateILb1EED2Ev.exit11, label %73, !prof !43

73:                                               ; preds = %_ZN4cvc58internal12NodeTemplateILb1EED2Ev.exit
  %74 = add i64 %71, 1152920405095219200
  %75 = and i64 %74, 1152920405095219200
  %76 = and i64 %71, -1152920405095219201
  %77 = or disjoint i64 %75, %76
  store i64 %77, ptr %70, align 8
  %78 = icmp eq i64 %75, 0
  br i1 %78, label %79, label %_ZN4cvc58internal12NodeTemplateILb1EED2Ev.exit11, !prof !43

79:                                               ; preds = %73
  invoke void @_ZN4cvc58internal4expr9NodeValue15markForDeletionEv(ptr noundef nonnull align 8 dereferenceable(24) %70)
          to label %_ZN4cvc58internal12NodeTemplateILb1EED2Ev.exit11 unwind label %80

80:                                               ; preds = %79
  %81 = landingpad { ptr, i32 }
          catch ptr null
  %82 = extractvalue { ptr, i32 } %81, 0
  call void @__clang_call_terminate(ptr %82) #25
  unreachable

_ZN4cvc58internal12NodeTemplateILb1EED2Ev.exit11: ; preds = %_ZN4cvc58internal12NodeTemplateILb1EED2Ev.exit, %73, %79
  %83 = load ptr, ptr %7, align 8, !tbaa !33
  %84 = load i64, ptr %83, align 8
  %85 = and i64 %84, 1152920405095219200
  %.not.i.i12 = icmp eq i64 %85, 1152920405095219200
  br i1 %.not.i.i12, label %_ZN4cvc58internal8TypeNodeD2Ev.exit, label %86, !prof !43

86:                                               ; preds = %_ZN4cvc58internal12NodeTemplateILb1EED2Ev.exit11
  %87 = add i64 %84, 1152920405095219200
  %88 = and i64 %87, 1152920405095219200
  %89 = and i64 %84, -1152920405095219201
  %90 = or disjoint i64 %88, %89
  store i64 %90, ptr %83, align 8
  %91 = icmp eq i64 %88, 0
  br i1 %91, label %92, label %_ZN4cvc58internal8TypeNodeD2Ev.exit, !prof !43

92:                                               ; preds = %86
  invoke void @_ZN4cvc58internal4expr9NodeValue15markForDeletionEv(ptr noundef nonnull align 8 dereferenceable(24) %83)
          to label %_ZN4cvc58internal8TypeNodeD2Ev.exit unwind label %93

93:                                               ; preds = %92
  %94 = landingpad { ptr, i32 }
          catch ptr null
  %95 = extractvalue { ptr, i32 } %94, 0
  call void @__clang_call_terminate(ptr %95) #25
  unreachable

_ZN4cvc58internal8TypeNodeD2Ev.exit:              ; preds = %_ZN4cvc58internal12NodeTemplateILb1EED2Ev.exit11, %86, %92
  ret void

96:                                               ; preds = %39
  %97 = landingpad { ptr, i32 }
          cleanup
  br label %103

98:                                               ; preds = %54
  %99 = landingpad { ptr, i32 }
          cleanup
  br label %102

100:                                              ; preds = %_ZN4cvc58internal12NodeTemplateILb1EEC2ERKS2_.exit9
  %101 = landingpad { ptr, i32 }
          cleanup
  call void @_ZN4cvc58internal12NodeTemplateILb1EED2Ev(ptr noundef nonnull align 8 dereferenceable(8) %9) #23
  br label %102

102:                                              ; preds = %100, %98
  %.pn = phi { ptr, i32 } [ %101, %100 ], [ %99, %98 ]
  call void @_ZN4cvc58internal12NodeTemplateILb1EED2Ev(ptr noundef nonnull align 8 dereferenceable(8) %8) #23
  br label %103

103:                                              ; preds = %102, %96
  %.pn.pn = phi { ptr, i32 } [ %.pn, %102 ], [ %97, %96 ]
  call void @_ZN4cvc58internal8TypeNodeD2Ev(ptr noundef nonnull align 8 dereferenceable(8) %7) #23
  resume { ptr, i32 } %.pn.pn
}